; Function Attrs: mustprogress uwtable
define void @_ZN8proxygen16HPACKDecoderBase21setHeaderTableMaxSizeERNS_11HeaderTableEj(ptr nocapture noundef nonnull writeonly align 8 dereferenceable(16) %this, ptr noundef nonnull align 8 dereferenceable(80) %table, i32 noundef %maxSize) local_unnamed_addr #3 align 2 personality ptr @__gxx_personality_v0 {
entry:
  %ref.tmp5 = alloca %"class.google::LogMessageFatal", align 8
  %maxTableSize_ = getelementptr inbounds i8, ptr %this, i64 4
  store i32 %maxSize, ptr %maxTableSize_, align 4
  %capacity_.i = getelementptr inbounds i8, ptr %table, i64 8
  %0 = load i32, ptr %capacity_.i, align 8
  %cmp = icmp ugt i32 %0, %maxSize
  br i1 %cmp, label %if.then, label %if.end

if.then:                                          ; preds = %entry
  %vtable = load ptr, ptr %table, align 8
  %vfn = getelementptr inbounds i8, ptr %vtable, i64 24
  %1 = load ptr, ptr %vfn, align 8
  %call4 = tail call noundef zeroext i1 %1(ptr noundef nonnull align 8 dereferenceable(80) %table, i32 noundef %maxSize)
  br i1 %call4, label %if.end, label %cond.false

cond.false:                                       ; preds = %if.then
  call void @_ZN6google15LogMessageFatalC1EPKci(ptr noundef nonnull align 8 dereferenceable(96) %ref.tmp5, ptr noundef nonnull @.str, i32 noundef 61)
  %call6 = invoke noundef nonnull align 8 dereferenceable(8) ptr @_ZN6google10LogMessage6streamEv(ptr noundef nonnull align 8 dereferenceable(96) %ref.tmp5)
          to label %invoke.cont unwind label %lpad

invoke.cont:                                      ; preds = %cond.false
  %call8 = invoke noundef nonnull align 8 dereferenceable(8) ptr @_ZStlsISt11char_traitsIcEERSt13basic_ostreamIcT_ES5_PKc(ptr noundef nonnull align 8 dereferenceable(8) %call6, ptr noundef nonnull @.str.1)
          to label %cleanup.action unwind label %lpad

cleanup.action:                                   ; preds = %invoke.cont
  call void @_ZN6google15LogMessageFatalD1Ev(ptr noundef nonnull align 8 dereferenceable(96) %ref.tmp5) #23
  unreachable

lpad:                                             ; preds = %invoke.cont, %cond.false
  %2 = landingpad { ptr, i32 }
          cleanup
  call void @_ZN6google15LogMessageFatalD1Ev(ptr noundef nonnull align 8 dereferenceable(96) %ref.tmp5) #23
  unreachable

if.end:                                           ; preds = %if.then, %entry
  ret void
}